librr.so:BrotliDecoderCreateInstance
librr.so:BrotliDecoderDecompress
librr.so:BrotliDecoderDecompressStream
librr.so:BrotliDecoderDestroyInstance
librr.so:BrotliDecoderErrorString
librr.so:BrotliDecoderGetErrorCode
librr.so:BrotliDecoderHasMoreOutput
librr.so:BrotliDecoderIsFinished
librr.so:BrotliDecoderIsUsed
librr.so:BrotliDecoderSetCustomDictionary
librr.so:BrotliDecoderTakeOutput
librr.so:BrotliDecoderVersion
librr.so:BrotliEncoderCompress
librr.so:BrotliEncoderCompressStream
librr.so:BrotliEncoderCopyInputToRingBuffer
librr.so:BrotliEncoderCreateInstance
librr.so:BrotliEncoderDestroyInstance
librr.so:BrotliEncoderHasMoreOutput
librr.so:BrotliEncoderInputBlockSize
librr.so:BrotliEncoderIsFinished
librr.so:BrotliEncoderMaxCompressedSize
librr.so:BrotliEncoderSetCustomDictionary
librr.so:BrotliEncoderSetParameter
librr.so:BrotliEncoderTakeOutput
librr.so:BrotliEncoderVersion
librr.so:BrotliEncoderWriteData
librr.so:BrotliGetDictionary
librr.so:_ZN2rr10GdbCommand14init_auto_argsEv
librr.so:_ZN2rr10HasTaskSet10erase_taskEPNS_4TaskE
librr.so:_ZN2rr10HasTaskSet11insert_taskEPNS_4TaskE
librr.so:_ZN2rr10RecordTask10futex_waitENS_10remote_ptrIiEEiPb
librr.so:_ZN2rr10RecordTask11get_sigmaskEv
librr.so:_ZN2rr10RecordTask11set_siginfoERK9siginfo_t
librr.so:_ZN2rr10RecordTask12init_buffersEv
librr.so:_ZN2rr10RecordTask12record_eventERKNS_5EventENS0_15FlushSyscallbufEPKNS_9RegistersE
librr.so:_ZN2rr10RecordTask12record_localENS_10remote_ptrIvEElPKv
librr.so:_ZN2rr10RecordTask12set_tid_addrENS_10remote_ptrIiEE
librr.so:_ZN2rr10RecordTask13kill_if_aliveEv
librr.so:_ZN2rr10RecordTask13pop_stash_sigEPKNS0_13StashedSignalE
librr.so:_ZN2rr10RecordTask13record_remoteENS_10remote_ptrIvEEl
librr.so:_ZN2rr10RecordTask14get_parent_pidEv
librr.so:_ZN2rr10RecordTask14is_sig_blockedEi
librr.so:_ZN2rr10RecordTask14is_waiting_forEPS0_
librr.so:_ZN2rr10RecordTask15at_preload_initEv
librr.so:_ZN2rr10RecordTask15emulate_SIGCONTEv
librr.so:_ZN2rr10RecordTask15on_syscall_exitEiNS_13SupportedArchERKNS_9RegistersE
librr.so:_ZN2rr10RecordTask15post_wait_cloneEPNS_4TaskEi
librr.so:_ZN2rr10RecordTask16apply_group_stopEi
librr.so:_ZN2rr10RecordTask16is_in_syscallbufEv
librr.so:_ZN2rr10RecordTask16signal_deliveredEi
librr.so:_ZN2rr10RecordTask16update_sigactionERKNS_9RegistersE
librr.so:_ZN2rr10RecordTask17is_signal_pendingEi
librr.so:_ZN2rr10RecordTask17maybe_in_spinlockEv
librr.so:_ZN2rr10RecordTask18is_syscall_restartEv
librr.so:_ZN2rr10RecordTask18push_syscall_eventEi
librr.so:_ZN2rr10RecordTask19emulate_ptrace_stopENS_10WaitStatusEPK9siginfo_ti
librr.so:_ZN2rr10RecordTask19find_newborn_threadEv
librr.so:_ZN2rr10RecordTask19stash_synthetic_sigERK9siginfo_tNS_19SignalDeterministicE
librr.so:_ZN2rr10RecordTask20find_newborn_processEi
librr.so:_ZN2rr10RecordTask20record_current_eventEv
librr.so:_ZN2rr10RecordTask20set_emulated_ptracerEPS0_
librr.so:_ZN2rr10RecordTask20verify_signal_statesEv
librr.so:_ZN2rr10RecordTask21is_waiting_for_ptraceEPS0_
librr.so:_ZN2rr10RecordTask21will_resume_executionENS_13ResumeRequestENS_11WaitRequestENS_12TicksRequestEi
librr.so:_ZN2rr10RecordTask22maybe_flush_syscallbufEv
librr.so:_ZN2rr10RecordTask22maybe_reset_syscallbufEv
librr.so:_ZN2rr10RecordTask22record_remote_fallibleENS_10remote_ptrIvEEl
librr.so:_ZN2rr10RecordTask23set_sig_handler_defaultEi
librr.so:_ZN2rr10RecordTask24get_saved_ptrace_siginfoEv
librr.so:_ZN2rr10RecordTask24sig_resolved_dispositionEiNS_19SignalDeterministicE
librr.so:_ZN2rr10RecordTask24stashed_signal_processedEv
librr.so:_ZN2rr10RecordTask24update_own_namespace_tidEv
librr.so:_ZN2rr10RecordTask25force_emulate_ptrace_stopENS_10WaitStatusE
librr.so:_ZN2rr10RecordTask25has_any_actionable_signalEv
librr.so:_ZN2rr10RecordTask25read_sigmask_from_processEv
librr.so:_ZN2rr10RecordTask25set_tid_and_update_serialEi
librr.so:_ZN2rr10RecordTask26record_remote_by_local_mapENS_10remote_ptrIvEEm
librr.so:_ZN2rr10RecordTask26record_remote_even_if_nullENS_10remote_ptrIvEEl
librr.so:_ZN2rr10RecordTask26save_ptrace_signal_siginfoERK9siginfo_t
librr.so:_ZN2rr10RecordTask26take_ptrace_signal_siginfoEi
librr.so:_ZN2rr10RecordTask28is_arm_desched_event_syscallEv
librr.so:_ZN2rr10RecordTask31is_disarm_desched_event_syscallEv
librr.so:_ZN2rr10RecordTask32get_ptrace_eventmsg_seccomp_dataEv
librr.so:_ZN2rr10RecordTask33set_siginfo_for_synthetic_SIGCHLDEP9siginfo_t
librr.so:_ZN2rr10RecordTask35send_synthetic_SIGCHLD_if_necessaryEv
librr.so:_ZN2rr10RecordTask36syscallbuf_syscall_entry_breakpointsEv
librr.so:_ZN2rr10RecordTask40maybe_restore_original_syscall_registersEv
librr.so:_ZN2rr10RecordTask41is_at_syscallbuf_syscall_entry_breakpointEv
librr.so:_ZN2rr10RecordTask45is_at_syscallbuf_final_instruction_breakpointEv
librr.so:_ZN2rr10RecordTask5cloneENS_4Task11CloneReasonEiNS_10remote_ptrIvEES4_NS3_IiEEiijPNS_7SessionE
librr.so:_ZN2rr10RecordTask6tgkillEi
librr.so:_ZN2rr10RecordTask8did_waitEv
librr.so:_ZN2rr10RecordTask9pop_eventENS_9EventTypeE
librr.so:_ZN2rr10RecordTask9post_execEv
librr.so:_ZN2rr10RecordTask9stash_sigEv
librr.so:_ZN2rr10RecordTaskC1ERNS_13RecordSessionEijNS_13SupportedArchE
librr.so:_ZN2rr10RecordTaskC2ERNS_13RecordSessionEijNS_13SupportedArchE
librr.so:_ZN2rr10RecordTaskD0Ev
librr.so:_ZN2rr10RecordTaskD1Ev
librr.so:_ZN2rr10RecordTaskD2Ev
librr.so:_ZN2rr10ReplayTask12init_buffersENS_10remote_ptrIvEE
librr.so:_ZN2rr10ReplayTask13validate_regsEj
librr.so:_ZN2rr10ReplayTask17post_exec_syscallERKNSt7__cxx1112basic_stringIcSt11char_traitsIcESaIcEEE
librr.so:_ZN2rr10ReplayTask18current_frame_timeEv
librr.so:_ZN2rr10ReplayTask19current_trace_frameEv
librr.so:_ZN2rr10ReplayTask19set_data_from_traceEv
librr.so:_ZN2rr10ReplayTask27set_return_value_from_traceEv
librr.so:_ZN2rr10ReplayTask30set_real_tid_and_update_serialEi
librr.so:_ZN2rr10ReplayTask33apply_all_data_records_from_traceEv
librr.so:_ZN2rr10ReplayTaskC1ERNS_13ReplaySessionEiijNS_13SupportedArchE
librr.so:_ZN2rr10ReplayTaskC2ERNS_13ReplaySessionEiijNS_13SupportedArchE
librr.so:_ZN2rr10TraceFrameC1EliRKNS_5EventEld
librr.so:_ZN2rr10TraceFrameC2EliRKNS_5EventEld
librr.so:_ZN2rr10WaitStatus11for_syscallEPNS_10RecordTaskE
librr.so:_ZN2rr10WaitStatus12for_stop_sigEi
librr.so:_ZN2rr10WaitStatus13for_exit_codeEi
librr.so:_ZN2rr10WaitStatus13for_fatal_sigEi
librr.so:_ZN2rr10WaitStatus13for_group_sigEiPNS_10RecordTaskE
librr.so:_ZN2rr10WaitStatus16for_ptrace_eventEi
librr.so:_ZN2rr10choose_cpuENS_7BindCPUE
librr.so:_ZN2rr10ensure_dirERKNSt7__cxx1112basic_stringIcSt11char_traitsIcESaIcEEEPKcj
librr.so:_ZN2rr10errno_nameB5cxx11Ei
librr.so:_ZN2rr10log_streamEv
librr.so:_ZN2rr10state_nameENS_12SyscallStateE
librr.so:_ZN2rr11DumpCommand3runERSt6vectorINSt7__cxx1112basic_stringIcSt11char_traitsIcESaIcEEESaIS7_EE
librr.so:_ZN2rr11FileMonitor10LazyOffset8retrieveEb
librr.so:_ZN2rr11HelpCommand3runERSt6vectorINSt7__cxx1112basic_stringIcSt11char_traitsIcESaIcEEESaIS7_EE
librr.so:_ZN2rr11PackCommand3runERSt6vectorINSt7__cxx1112basic_stringIcSt11char_traitsIcESaIcEEESaIS7_EE
librr.so:_ZN2rr11ThreadGroup11destabilizeEv
librr.so:_ZN2rr11ThreadGroupC1EPNS_7SessionEPS0_iij
librr.so:_ZN2rr11ThreadGroupC2EPNS_7SessionEPS0_iij
librr.so:_ZN2rr11ThreadGroupD1Ev
librr.so:_ZN2rr11ThreadGroupD2Ev
librr.so:_ZN2rr11TraceReader10peek_frameEv
librr.so:_ZN2rr11TraceReader10read_frameEv
librr.so:_ZN2rr11TraceReader13read_raw_dataEv
librr.so:_ZN2rr11TraceReader15read_task_eventEPl
librr.so:_ZN2rr11TraceReader18read_mapped_regionEPNS_11TraceStream10MappedDataEPbNS0_18ValidateSourceFileENS0_14TimeConstraintE
librr.so:_ZN2rr11TraceReader23read_raw_data_for_frameERNS0_7RawDataE
librr.so:_ZN2rr11TraceReader32read_raw_data_metadata_for_frameERNS_11TraceStream15RawDataMetadataE
librr.so:_ZN2rr11TraceReader6rewindEv
librr.so:_ZN2rr11TraceReaderC1ERKNSt7__cxx1112basic_stringIcSt11char_traitsIcESaIcEEE
librr.so:_ZN2rr11TraceReaderC1ERKS0_
librr.so:_ZN2rr11TraceReaderC2ERKNSt7__cxx1112basic_stringIcSt11char_traitsIcESaIcEEE
librr.so:_ZN2rr11TraceReaderC2ERKS0_
librr.so:_ZN2rr11TraceReaderD1Ev
librr.so:_ZN2rr11TraceReaderD2Ev
librr.so:_ZN2rr11TraceStream16mmaps_block_sizeEv
librr.so:_ZN2rr11TraceStream25file_data_clone_file_nameB5cxx11ERKNS_10TaskishUidINS_4TaskEEE
librr.so:_ZN2rr11TraceStream4pathB5cxx11ENS0_9SubstreamE
librr.so:_ZN2rr11TraceStreamC1ERKNSt7__cxx1112basic_stringIcSt11char_traitsIcESaIcEEEl
librr.so:_ZN2rr11TraceStreamC2ERKNSt7__cxx1112basic_stringIcSt11char_traitsIcESaIcEEEl
librr.so:_ZN2rr11TraceWriter11write_frameEPNS_10RecordTaskERKNS_5EventEPKNS_9RegistersEPKNS_14ExtraRegistersE
librr.so:_ZN2rr11TraceWriter14try_clone_fileEPNS_10RecordTaskERKNSt7__cxx1112basic_stringIcSt11char_traitsIcESaIcEEEPS8_
librr.so:_ZN2rr11TraceWriter16write_task_eventERKNS_14TraceTaskEventE
librr.so:_ZN2rr11TraceWriter17make_latest_traceEv
librr.so:_ZN2rr11TraceWriter17try_hardlink_fileERKNSt7__cxx1112basic_stringIcSt11char_traitsIcESaIcEEEPS6_
librr.so:_ZN2rr11TraceWriter19write_mapped_regionEPNS_10RecordTaskERKNS_13KernelMappingERK4statNS0_13MappingOriginE
librr.so:_ZN2rr11TraceWriter41write_mapped_region_to_alternative_streamERNS_16CompressedWriterERKNS_11TraceStream10MappedDataERKNS_13KernelMappingE
librr.so:_ZN2rr11TraceWriter5closeEv
librr.so:_ZN2rr11TraceWriter9copy_fileERKNSt7__cxx1112basic_stringIcSt11char_traitsIcESaIcEEEPS6_
librr.so:_ZN2rr11TraceWriter9write_rawEiPKvmNS_10remote_ptrIvEE
librr.so:_ZN2rr11TraceWriterC1ERKNSt7__cxx1112basic_stringIcSt11char_traitsIcESaIcEEEib
librr.so:_ZN2rr11TraceWriterC2ERKNSt7__cxx1112basic_stringIcSt11char_traitsIcESaIcEEEib
librr.so:_ZN2rr11current_envB5cxx11Ev
librr.so:_ZN2rr11good_randomEPvm
librr.so:_ZN2rr11open_socketEPKcPtNS_9ProbePortE
librr.so:_ZN2rr11read_to_endERKNS_8ScopedFdEmPvm
librr.so:_ZN2rr11set_loggingEPKcNS_8LogLevelE
librr.so:_ZN2rr11sicode_nameB5cxx11Eii
librr.so:_ZN2rr11signal_nameB5cxx11Ei
librr.so:_ZN2rr12AddressSpace11after_cloneEv
librr.so:_ZN2rr12AddressSpace11map_rr_pageERNS_18AutoRemoteSyscallsE
librr.so:_ZN2rr12AddressSpace13did_fork_intoEPNS_4TaskE
librr.so:_ZN2rr12AddressSpace13local_mappingENS_10remote_ptrIvEEm
librr.so:_ZN2rr12AddressSpace13post_vm_cloneEPNS_4TaskE
librr.so:_ZN2rr12AddressSpace14access_bits_ofENS_9WatchTypeE
librr.so:_ZN2rr12AddressSpace14add_breakpointENS_15remote_code_ptrENS_14BreakpointTypeE
librr.so:_ZN2rr12AddressSpace14add_watchpointENS_10remote_ptrIvEEmNS_9WatchTypeE
librr.so:_ZN2rr12AddressSpace14notify_writtenENS_10remote_ptrIvEEmj
librr.so:_ZN2rr12AddressSpace14unmap_internalEPNS_4TaskENS_10remote_ptrIvEEl
librr.so:_ZN2rr12AddressSpace15all_watchpointsEv
librr.so:_ZN2rr12AddressSpace15at_preload_initEPNS_4TaskE
librr.so:_ZN2rr12AddressSpace15coalesce_aroundEPNS_4TaskESt17_Rb_tree_iteratorISt4pairIKNS_11MemoryRangeENS0_7MappingEEE
librr.so:_ZN2rr12AddressSpace16find_free_memoryEmNS_10remote_ptrIvEE
librr.so:_ZN2rr12AddressSpace16map_and_coalesceEPNS_4TaskERKNS_13KernelMappingES5_St10shared_ptrINS_7EmuFileEESt10unique_ptrI4statSt14default_deleteISA_EEPvOS6_INS_21MonitoredSharedMemoryEE
librr.so:_ZN2rr12AddressSpace16mapping_flags_ofENS_10remote_ptrIvEE
librr.so:_ZN2rr12AddressSpace16rr_page_syscallsEv
librr.so:_ZN2rr12AddressSpace16save_watchpointsEv
librr.so:_ZN2rr12AddressSpace17for_each_in_rangeENS_10remote_ptrIvEElSt8functionIFvRKNS0_7MappingERKNS_11MemoryRangeEEEi
librr.so:_ZN2rr12AddressSpace17get_watch_configsENS0_16WillSetTaskStateE
librr.so:_ZN2rr12AddressSpace17post_exec_syscallEPNS_4TaskE
librr.so:_ZN2rr12AddressSpace17remove_breakpointENS_15remote_code_ptrENS_14BreakpointTypeE
librr.so:_ZN2rr12AddressSpace17remove_watchpointENS_10remote_ptrIvEEmNS_9WatchTypeE
librr.so:_ZN2rr12AddressSpace18destroy_breakpointESt23_Rb_tree_const_iteratorISt4pairIKNS_15remote_code_ptrENS0_10BreakpointEEE
librr.so:_ZN2rr12AddressSpace19read_kernel_mappingEPNS_4TaskENS_10remote_ptrIvEE
librr.so:_ZN2rr12AddressSpace19restore_watchpointsEv
librr.so:_ZN2rr12AddressSpace20allocate_watchpointsEv
librr.so:_ZN2rr12AddressSpace20detach_local_mappingENS_10remote_ptrIvEE
librr.so:_ZN2rr12AddressSpace21restore_breakpoint_atENS_15remote_code_ptrE
librr.so:_ZN2rr12AddressSpace21suspend_breakpoint_atENS_15remote_code_ptrE
librr.so:_ZN2rr12AddressSpace22populate_address_spaceEPNS_4TaskE
librr.so:_ZN2rr12AddressSpace22remove_all_breakpointsEv
librr.so:_ZN2rr12AddressSpace22remove_all_watchpointsEv
librr.so:_ZN2rr12AddressSpace23notify_watchpoint_firedEm
librr.so:_ZN2rr12AddressSpace23update_watchpoint_valueERKNS_11MemoryRangeERNS0_10WatchpointE
librr.so:_ZN2rr12AddressSpace24find_syscall_instructionEPNS_4TaskE
librr.so:_ZN2rr12AddressSpace24get_watchpoints_internalENS0_16WatchpointFilterE
librr.so:_ZN2rr12AddressSpace24maybe_update_breakpointsEPNS_4TaskENS_10remote_ptrIhEEm
librr.so:_ZN2rr12AddressSpace24update_watchpoint_valuesENS_10remote_ptrIvEES2_
librr.so:_ZN2rr12AddressSpace25has_exec_watchpoint_firedENS_15remote_code_ptrE
librr.so:_ZN2rr12AddressSpace25is_breakpoint_instructionEPNS_4TaskENS_15remote_code_ptrE
librr.so:_ZN2rr12AddressSpace25read_local_kernel_mappingEPh
librr.so:_ZN2rr12AddressSpace26consume_watchpoint_changesEv
librr.so:_ZN2rr12AddressSpace26has_any_watchpoint_changesEv
librr.so:_ZN2rr12AddressSpace26rr_page_syscall_exit_pointENS0_6TracedENS0_10PrivilegedENS0_7EnabledE
librr.so:_ZN2rr12AddressSpace27chaos_mode_find_free_memoryEPNS_4TaskEm
librr.so:_ZN2rr12AddressSpace27get_breakpoint_type_at_addrENS_15remote_code_ptrE
librr.so:_ZN2rr12AddressSpace27rr_page_syscall_entry_pointENS0_6TracedENS0_10PrivilegedENS0_7EnabledENS_13SupportedArchE
librr.so:_ZN2rr12AddressSpace31rr_page_syscall_from_exit_pointENS_15remote_code_ptrE
librr.so:_ZN2rr12AddressSpace32rr_page_syscall_from_entry_pointENS_15remote_code_ptrE
librr.so:_ZN2rr12AddressSpace35fixup_mprotect_growsdown_parametersEPNS_4TaskE
librr.so:_ZN2rr12AddressSpace36get_breakpoint_type_for_retired_insnENS_15remote_code_ptrE
librr.so:_ZN2rr12AddressSpace3brkEPNS_4TaskENS_10remote_ptrIvEEi
librr.so:_ZN2rr12AddressSpace3mapEPNS_4TaskENS_10remote_ptrIvEEmiilRKNSt7__cxx1112basic_stringIcSt11char_traitsIcESaIcEEEmmSt10unique_ptrI4statSt14default_deleteISE_EEPKNS_13KernelMappingESt10shared_ptrINS_7EmuFileEEPvOSL_INS_21MonitoredSharedMemoryEE
librr.so:_ZN2rr12AddressSpace40replace_breakpoints_with_original_valuesEPhmNS_10remote_ptrIhEE
librr.so:_ZN2rr12AddressSpace41is_breakpoint_in_private_read_only_memoryENS_15remote_code_ptrE
librr.so:_ZN2rr12AddressSpace5remapEPNS_4TaskENS_10remote_ptrIvEEmS4_m
librr.so:_ZN2rr12AddressSpace5unmapEPNS_4TaskENS_10remote_ptrIvEEl
librr.so:_ZN2rr12AddressSpace6adviseEPNS_4TaskENS_10remote_ptrIvEEli
librr.so:_ZN2rr12AddressSpace7MappingC1ERKNS_13KernelMappingES4_St10shared_ptrINS_7EmuFileEESt10unique_ptrI4statSt14default_deleteIS9_EEPvOS5_INS_21MonitoredSharedMemoryEE
librr.so:_ZN2rr12AddressSpace7MappingC1ERKS1_
librr.so:_ZN2rr12AddressSpace7MappingC2ERKNS_13KernelMappingES4_St10shared_ptrINS_7EmuFileEESt10unique_ptrI4statSt14default_deleteIS9_EEPvOS5_INS_21MonitoredSharedMemoryEE
librr.so:_ZN2rr12AddressSpace7MappingC2ERKS1_
librr.so:_ZN2rr12AddressSpace7MappingD1Ev
librr.so:_ZN2rr12AddressSpace7MappingD2Ev
librr.so:_ZN2rr12AddressSpace7protectEPNS_4TaskENS_10remote_ptrIvEEmi
librr.so:_ZN2rr12AddressSpace9save_auxvEPNS_4TaskE
librr.so:_ZN2rr12AddressSpaceC1EPNS_4TaskERKNSt7__cxx1112basic_stringIcSt11char_traitsIcESaIcEEEj
librr.so:_ZN2rr12AddressSpaceC1EPNS_7SessionERKS0_ijj
librr.so:_ZN2rr12AddressSpaceC2EPNS_4TaskERKNSt7__cxx1112basic_stringIcSt11char_traitsIcESaIcEEEj
librr.so:_ZN2rr12AddressSpaceC2EPNS_7SessionERKS0_ijj
librr.so:_ZN2rr12AddressSpaceD1Ev
librr.so:_ZN2rr12AddressSpaceD2Ev
librr.so:_ZN2rr12FatalOstreamC1EPKciS2_
librr.so:_ZN2rr12FatalOstreamC2EPKciS2_
librr.so:_ZN2rr12FatalOstreamD1Ev
librr.so:_ZN2rr12FatalOstreamD2Ev
librr.so:_ZN2rr12PerfCounters10read_ticksEPNS_4TaskE
librr.so:_ZN2rr12PerfCounters13is_ticks_attrERK15perf_event_attr
librr.so:_ZN2rr12PerfCounters13stop_countingEv
librr.so:_ZN2rr12PerfCounters4stopEv
librr.so:_ZN2rr12PerfCounters5resetEl
librr.so:_ZN2rr12PerfCounters7set_tidEi
librr.so:_ZN2rr12PerfCounters9skid_sizeEv
librr.so:_ZN2rr12PerfCountersC1Ei
librr.so:_ZN2rr12PerfCountersC2Ei
librr.so:_ZN2rr12RerunCommand3runERSt6vectorINSt7__cxx1112basic_stringIcSt11char_traitsIcESaIcEEESaIS7_EE
librr.so:_ZN2rr12StdioMonitor10will_writeEPNS_4TaskE
librr.so:_ZN2rr12StdioMonitor9did_writeEPNS_4TaskERKSt6vectorINS_11FileMonitor5RangeESaIS5_EERNS4_10LazyOffsetE
librr.so:_ZN2rr12get_num_cpusEv
librr.so:_ZN2rr12is_directoryEPKc
librr.so:_ZN2rr12is_sigreturnEiNS_13SupportedArchE
librr.so:_ZN2rr12syscall_nameB5cxx11EiNS_13SupportedArchE
librr.so:_ZN2rr13ElfFileReader13identify_archERNS_8ScopedFdE
librr.so:_ZN2rr13ElfFileReader15open_debug_fileERKNSt7__cxx1112basic_stringIcSt11char_traitsIcESaIcEEE
librr.so:_ZN2rr13ElfFileReader4readEmmPv
librr.so:_ZN2rr13GdbConnection10reply_openEii
librr.so:_ZN2rr13GdbConnection11get_requestEv
librr.so:_ZN2rr13GdbConnection11notify_stopENS_11GdbThreadIdEim
librr.so:_ZN2rr13GdbConnection11read_packetEv
librr.so:_ZN2rr13GdbConnection11reply_closeEi
librr.so:_ZN2rr13GdbConnection11reply_preadEPKhli
librr.so:_ZN2rr13GdbConnection11reply_setfsEi
librr.so:_ZN2rr13GdbConnection11write_flushEv
librr.so:_ZN2rr13GdbConnection12reply_detachEv
librr.so:_ZN2rr13GdbConnection12reply_rr_cmdERKNSt7__cxx1112basic_stringIcSt11char_traitsIcESaIcEEE
librr.so:_ZN2rr13GdbConnection12send_qsymbolERKNSt7__cxx1112basic_stringIcSt11char_traitsIcESaIcEEE
librr.so:_ZN2rr13GdbConnection12sniff_packetEv
librr.so:_ZN2rr13GdbConnection12write_packetEPKc
librr.so:_ZN2rr13GdbConnection13reply_get_memERKSt6vectorIhSaIhEE
librr.so:_ZN2rr13GdbConnection13reply_get_regERKNS_16GdbRegisterValueE
librr.so:_ZN2rr13GdbConnection13reply_set_memEb
librr.so:_ZN2rr13GdbConnection13reply_set_regEb
librr.so:_ZN2rr13GdbConnection14await_debuggerERNS_8ScopedFdE
librr.so:_ZN2rr13GdbConnection14notify_restartEv
librr.so:_ZN2rr13GdbConnection14process_packetEv
librr.so:_ZN2rr13GdbConnection14read_data_onceEv
librr.so:_ZN2rr13GdbConnection14reply_get_auxvERKSt6vectorIhSaIhEE
librr.so:_ZN2rr13GdbConnection14reply_get_regsERKSt6vectorINS_16GdbRegisterValueESaIS2_EE
librr.so:_ZN2rr13GdbConnection14reply_tls_addrEbNS_10remote_ptrIvEE
librr.so:_ZN2rr13GdbConnection14write_data_rawEPKhl
librr.so:_ZN2rr13GdbConnection15consume_requestEv
librr.so:_ZN2rr13GdbConnection15process_bpacketEPc
librr.so:_ZN2rr13GdbConnection15process_vpacketEPc
librr.so:_ZN2rr13GdbConnection16notify_exit_codeEi
librr.so:_ZN2rr13GdbConnection16reply_search_memEbNS_10remote_ptrIvEE
librr.so:_ZN2rr13GdbConnection17qsymbols_finishedEv
librr.so:_ZN2rr13GdbConnection17reply_get_offsetsEv
librr.so:_ZN2rr13GdbConnection18notify_exit_signalEi
librr.so:_ZN2rr13GdbConnection18reply_read_siginfoERKSt6vectorIhSaIhEE
librr.so:_ZN2rr13GdbConnection18write_packet_bytesEPKhm
librr.so:_ZN2rr13GdbConnection19is_connection_aliveEv
librr.so:_ZN2rr13GdbConnection19reply_get_exec_fileERKNSt7__cxx1112basic_stringIcSt11char_traitsIcESaIcEEE
librr.so:_ZN2rr13GdbConnection19reply_select_threadEb
librr.so:_ZN2rr13GdbConnection19reply_write_siginfoEv
librr.so:_ZN2rr13GdbConnection19write_binary_packetEPKcPKhl
librr.so:_ZN2rr13GdbConnection19write_xfer_responseEPKvmmm
librr.so:_ZN2rr13GdbConnection20skip_to_packet_startEv
librr.so:_ZN2rr13GdbConnection21notify_no_such_threadERKNS_10GdbRequestE
librr.so:_ZN2rr13GdbConnection21notify_restart_failedEv
librr.so:_ZN2rr13GdbConnection21reply_get_stop_reasonENS_11GdbThreadIdEi
librr.so:_ZN2rr13GdbConnection21reply_get_thread_listERKSt6vectorINS_11GdbThreadIdESaIS2_EE
librr.so:_ZN2rr13GdbConnection21send_file_error_replyEi
librr.so:_ZN2rr13GdbConnection22send_stop_reply_packetENS_11GdbThreadIdEim
librr.so:_ZN2rr13GdbConnection22write_hex_bytes_packetEPKcPKhm
librr.so:_ZN2rr13GdbConnection22write_hex_bytes_packetEPKhm
librr.so:_ZN2rr13GdbConnection24reply_get_current_threadENS_11GdbThreadIdE
librr.so:_ZN2rr13GdbConnection24reply_watchpoint_requestEb
librr.so:_ZN2rr13GdbConnection25reply_get_is_thread_aliveEb
librr.so:_ZN2rr13GdbConnection27reply_get_thread_extra_infoERKNSt7__cxx1112basic_stringIcSt11char_traitsIcESaIcEEE
librr.so:_ZN2rr13GdbConnection4xferEPKcPc
librr.so:_ZN2rr13GdbConnection5queryEPc
librr.so:_ZN2rr13GdbConnection7set_varEPc
librr.so:_ZN2rr13GdbConnection9write_hexEm
librr.so:_ZN2rr13GdbConnectionC1EiRKNS0_8FeaturesE
librr.so:_ZN2rr13GdbConnectionC2EiRKNS0_8FeaturesE
librr.so:_ZN2rr13GdbExpressionC1EPKhm
librr.so:_ZN2rr13GdbExpressionC2EPKhm
librr.so:_ZN2rr13Monkeypatcher16patch_after_execEPNS_10RecordTaskE
librr.so:_ZN2rr13Monkeypatcher16patch_after_mmapEPNS_10RecordTaskENS_10remote_ptrIvEEmmi
librr.so:_ZN2rr13Monkeypatcher17try_patch_syscallEPNS_10RecordTaskE
librr.so:_ZN2rr13Monkeypatcher21patch_at_preload_initEPNS_10RecordTaskE
librr.so:_ZN2rr13Monkeypatcher24is_jump_stub_instructionENS_15remote_code_ptrE
librr.so:_ZN2rr13Monkeypatcher29init_dynamic_syscall_patchingEPNS_10RecordTaskEiNS_10remote_ptrI18syscall_patch_hookEE
librr.so:_ZN2rr13RecordCommand3runERSt6vectorINSt7__cxx1112basic_stringIcSt11char_traitsIcESaIcEEESaIS7_EE
librr.so:_ZN2rr13RecordSession10on_destroyEPNS_4TaskE
librr.so:_ZN2rr13RecordSession11record_stepEv
librr.so:_ZN2rr13RecordSession13task_continueERKNS0_9StepStateE
librr.so:_ZN2rr13RecordSession19handle_ptrace_eventEPPNS_10RecordTaskEPNS0_9StepStateEPNS0_12RecordResultEPb
librr.so:_ZN2rr13RecordSession19handle_signal_eventEPNS_10RecordTaskEPNS0_9StepStateE
librr.so:_ZN2rr13RecordSession19terminate_recordingEv
librr.so:_ZN2rr13RecordSession20revive_task_for_execEi
librr.so:_ZN2rr13RecordSession20signal_state_changedEPNS_10RecordTaskEPNS0_9StepStateE
librr.so:_ZN2rr13RecordSession21desched_state_changedEPNS_10RecordTaskE
librr.so:_ZN2rr13RecordSession21process_syscall_entryEPNS_10RecordTaskEPNS0_9StepStateEPNS0_12RecordResultENS_13SupportedArchE
librr.so:_ZN2rr13RecordSession21syscall_state_changedEPNS_10RecordTaskEPNS0_9StepStateE
librr.so:_ZN2rr13RecordSession22runnable_state_changedEPNS_10RecordTaskEPNS0_9StepStateEPNS0_12RecordResultEb
librr.so:_ZN2rr13RecordSession24prepare_to_inject_signalEPNS_10RecordTaskEPNS0_9StepStateE
librr.so:_ZN2rr13RecordSession27check_initial_task_syscallsEPNS_10RecordTaskEPNS0_12RecordResultE
librr.so:_ZN2rr13RecordSession29handle_seccomp_traced_syscallEPNS_10RecordTaskEPNS0_9StepStateEPNS0_12RecordResultEPb
librr.so:_ZN2rr13RecordSession6createERKSt6vectorINSt7__cxx1112basic_stringIcSt11char_traitsIcESaIcEEESaIS7_EESB_NS0_16SyscallBufferingENS_7BindCPUE
librr.so:_ZN2rr13RecordSession7can_endEv
librr.so:_ZN2rr13RecordSession8new_taskEiijNS_13SupportedArchE
librr.so:_ZN2rr13RecordSession9on_createEPNS_4TaskE
librr.so:_ZN2rr13RecordSessionC1ERKNSt7__cxx1112basic_stringIcSt11char_traitsIcESaIcEEERKSt6vectorIS6_SaIS6_EESD_NS0_16SyscallBufferingENS_7BindCPUE
librr.so:_ZN2rr13RecordSessionC2ERKNSt7__cxx1112basic_stringIcSt11char_traitsIcESaIcEEERKSt6vectorIS6_SaIS6_EESD_NS0_16SyscallBufferingENS_7BindCPUE
librr.so:_ZN2rr13ReplayCommand3runERSt6vectorINSt7__cxx1112basic_stringIcSt11char_traitsIcESaIcEEESaIS7_EE
librr.so:_ZN2rr13ReplaySession11replay_stepERKNS0_15StepConstraintsE
librr.so:_ZN2rr13ReplaySession12exit_syscallEPNS_10ReplayTaskE
librr.so:_ZN2rr13ReplaySession13enter_syscallEPNS_10ReplayTaskERKNS0_15StepConstraintsE
librr.so:_ZN2rr13ReplaySession15clone_diversionEv
librr.so:_ZN2rr13ReplaySession16clear_syscall_bpEv
librr.so:_ZN2rr13ReplaySession16continue_or_stepEPNS_10ReplayTaskERKNS0_15StepConstraintsENS_12TicksRequestENS_13ResumeRequestE
librr.so:_ZN2rr13ReplaySession16flush_syscallbufEPNS_10ReplayTaskERKNS0_15StepConstraintsE
librr.so:_ZN2rr13ReplaySession17check_pending_sigEPNS_10ReplayTaskE
librr.so:_ZN2rr13ReplaySession17is_ignored_signalEi
librr.so:_ZN2rr13ReplaySession18patch_next_syscallEPNS_10ReplayTaskERKNS0_15StepConstraintsE
librr.so:_ZN2rr13ReplaySession18try_one_trace_stepEPNS_10ReplayTaskERKNS0_15StepConstraintsE
librr.so:_ZN2rr13ReplaySession20emulate_async_signalEPNS_10ReplayTaskERKNS0_15StepConstraintsEl
librr.so:_ZN2rr13ReplaySession20revive_task_for_execEv
librr.so:_ZN2rr13ReplaySession21cont_syscall_boundaryEPNS_10ReplayTaskERKNS0_15StepConstraintsE
librr.so:_ZN2rr13ReplaySession23advance_to_ticks_targetEPNS_10ReplayTaskERKNS0_15StepConstraintsE
librr.so:_ZN2rr13ReplaySession23check_ticks_consistencyEPNS_10ReplayTaskERKNS_5EventE
librr.so:_ZN2rr13ReplaySession23emulate_signal_deliveryEPNS_10ReplayTaskEi
librr.so:_ZN2rr13ReplaySession25always_free_address_spaceERKNS_11TraceReaderE
librr.so:_ZN2rr13ReplaySession26prepare_syscallbuf_recordsEPNS_10ReplayTaskE
librr.so:_ZN2rr13ReplaySession27advance_to_next_trace_frameEv
librr.so:_ZN2rr13ReplaySession28emulate_deterministic_signalEPNS_10ReplayTaskEiRKNS0_15StepConstraintsE
librr.so:_ZN2rr13ReplaySession28setup_replay_one_trace_frameEPNS_10ReplayTaskE
librr.so:_ZN2rr13ReplaySession29handle_unrecorded_cpuid_faultEPNS_10ReplayTaskERKNS0_15StepConstraintsE
librr.so:_ZN2rr13ReplaySession30check_approaching_ticks_targetEPNS_10ReplayTaskERKNS0_15StepConstraintsERNS_11BreakStatusE
librr.so:_ZN2rr13ReplaySession36next_step_is_successful_syscall_exitEi
librr.so:_ZN2rr13ReplaySession5cloneEv
librr.so:_ZN2rr13ReplaySession6createERKNSt7__cxx1112basic_stringIcSt11char_traitsIcESaIcEEE
librr.so:_ZN2rr13ReplaySession8new_taskEiijNS_13SupportedArchE
librr.so:_ZN2rr13ReplaySession9can_cloneEv
librr.so:_ZN2rr13ReplaySession9exit_taskEPNS_10ReplayTaskE
librr.so:_ZN2rr13ReplaySessionC1ERKNSt7__cxx1112basic_stringIcSt11char_traitsIcESaIcEEE
librr.so:_ZN2rr13ReplaySessionC1ERKS0_
librr.so:_ZN2rr13ReplaySessionC2ERKNSt7__cxx1112basic_stringIcSt11char_traitsIcESaIcEEE
librr.so:_ZN2rr13ReplaySessionC2ERKS0_
librr.so:_ZN2rr13ReplaySessionD0Ev
librr.so:_ZN2rr13ReplaySessionD1Ev
librr.so:_ZN2rr13ReplaySessionD2Ev
librr.so:_ZN2rr13dump_rr_stackEv
librr.so:_ZN2rr13dump_task_mapERKSt3mapIiPNS_4TaskESt4lessIiESaISt4pairIKiS2_EEE
librr.so:_ZN2rr13dump_task_setERKSt3setIPNS_4TaskESt4lessIS2_ESaIS2_EE
librr.so:_ZN2rr13exe_directoryB5cxx11Ev
librr.so:_ZN2rr13handle_signalEPNS_10RecordTaskEP9siginfo_tNS_19SignalDeterministicENS_13SignalBlockedE
librr.so:_ZN2rr13to_x86_narrowERiRm
librr.so:_ZN2rr14AutoRestoreMem4initEPKvl
librr.so:_ZN2rr14AutoRestoreMemD1Ev
librr.so:_ZN2rr14AutoRestoreMemD2Ev
librr.so:_ZN2rr14ExtraRegisters15set_to_raw_dataENS_13SupportedArchENS0_6FormatEPKhmRKNS_11XSaveLayoutE
librr.so:_ZN2rr14ExtraRegisters22set_user_fpregs_structEPNS_4TaskENS_13SupportedArchEPvm
librr.so:_ZN2rr14ExtraRegisters23set_user_fpxregs_structEPNS_4TaskERKNS_7X86Arch19user_fpxregs_structE
librr.so:_ZN2rr14ExtraRegisters5resetEv
librr.so:_ZN2rr14ExtraRegisters8validateEPNS_4TaskE
librr.so:_ZN2rr14GdbInitCommand3runERSt6vectorINSt7__cxx1112basic_stringIcSt11char_traitsIcESaIcEEESaIS7_EE
librr.so:_ZN2rr14ProcMemMonitor9did_writeEPNS_4TaskERKSt6vectorINS_11FileMonitor5RangeESaIS5_EERNS4_10LazyOffsetE
librr.so:_ZN2rr14ProcMemMonitorC1EPNS_4TaskERKNSt7__cxx1112basic_stringIcSt11char_traitsIcESaIcEEE
librr.so:_ZN2rr14ProcMemMonitorC2EPNS_4TaskERKNSt7__cxx1112basic_stringIcSt11char_traitsIcESaIcEEE
librr.so:_ZN2rr14ReplayTimeline12InternalMarkD1Ev
librr.so:_ZN2rr14ReplayTimeline12InternalMarkD2Ev
librr.so:_ZN2rr14ReplayTimeline12current_markEv
librr.so:_ZN2rr14ReplayTimeline12seek_to_markERKNS0_4MarkE
librr.so:_ZN2rr14ReplayTimeline14add_breakpointEPNS_10ReplayTaskENS_15remote_code_ptrESt10unique_ptrINS_19BreakpointConditionESt14default_deleteIS5_EE
librr.so:_ZN2rr14ReplayTimeline14add_watchpointEPNS_10ReplayTaskENS_10remote_ptrIvEEmNS_9WatchTypeESt10unique_ptrINS_19BreakpointConditionESt14default_deleteIS7_EE
librr.so:_ZN2rr14ReplayTimeline15seek_up_to_markERKNS0_4MarkE
librr.so:_ZN2rr14ReplayTimeline16reverse_continueERKSt8functionIFbPNS_10ReplayTaskEEERKS1_IFbvEE
librr.so:_ZN2rr14ReplayTimeline17estimate_progressEv
librr.so:_ZN2rr14ReplayTimeline17remove_breakpointEPNS_10ReplayTaskENS_15remote_code_ptrE
librr.so:_ZN2rr14ReplayTimeline17remove_watchpointEPNS_10ReplayTaskENS_10remote_ptrIvEEmNS_9WatchTypeE
librr.so:_ZN2rr14ReplayTimeline18reverse_singlestepERKNS0_4MarkERKNS_10TaskishUidINS_4TaskEEElRKSt8functionIFbPNS_10ReplayTaskEEERKS9_IFbvEE
librr.so:_ZN2rr14ReplayTimeline18reverse_singlestepERKNS_10TaskishUidINS_4TaskEEElRKSt8functionIFbPNS_10ReplayTaskEEERKS6_IFbvEE
librr.so:_ZN2rr14ReplayTimeline18seek_to_before_keyERKNS0_7MarkKeyE
librr.so:_ZN2rr14ReplayTimeline18seek_to_proto_markERKNS0_9ProtoMarkE
librr.so:_ZN2rr14ReplayTimeline19evaluate_conditionsERNS_12ReplayResultE
librr.so:_ZN2rr14ReplayTimeline19replay_step_forwardENS_10RunCommandEl
librr.so:_ZN2rr14ReplayTimeline19replay_step_to_markERKNS0_4MarkERNS0_24ReplayStepToMarkStrategyE
librr.so:_ZN2rr14ReplayTimeline20set_short_checkpointEv
librr.so:_ZN2rr14ReplayTimeline21mark_after_singlestepERKNS0_4MarkERKNS_12ReplayResultE
librr.so:_ZN2rr14ReplayTimeline22find_singlestep_beforeERKNS0_4MarkE
librr.so:_ZN2rr14ReplayTimeline23add_explicit_checkpointEv
librr.so:_ZN2rr14ReplayTimeline23lazy_reverse_singlestepERKNS0_4MarkEPNS_10ReplayTaskE
librr.so:_ZN2rr14ReplayTimeline24ReplayStepToMarkStrategy22setup_step_constraintsEv
librr.so:_ZN2rr14ReplayTimeline25has_breakpoint_at_addressEPNS_10ReplayTaskENS_15remote_code_ptrE
librr.so:_ZN2rr14ReplayTimeline25has_watchpoint_at_addressEPNS_10ReplayTaskENS_10remote_ptrIvEEmNS_9WatchTypeE
librr.so:_ZN2rr14ReplayTimeline26apply_breakpoints_internalEv
librr.so:_ZN2rr14ReplayTimeline26remove_explicit_checkpointERKNS0_4MarkE
librr.so:_ZN2rr14ReplayTimeline27remove_mark_with_checkpointERKNS0_7MarkKeyE
librr.so:_ZN2rr14ReplayTimeline28unapply_breakpoints_internalEv
librr.so:_ZN2rr14ReplayTimeline30update_observable_break_statusERNS0_4MarkERKNS_12ReplayResultE
librr.so:_ZN2rr14ReplayTimeline31fix_watchpoint_coalescing_quirkERNS_12ReplayResultERKNS0_9ProtoMarkE
librr.so:_ZN2rr14ReplayTimeline33apply_breakpoints_and_watchpointsEv
librr.so:_ZN2rr14ReplayTimeline33maybe_add_reverse_exec_checkpointENS0_18CheckpointStrategyE
librr.so:_ZN2rr14ReplayTimeline33run_forward_to_intermediate_pointERKNS0_4MarkENS0_13ForceProgressE
librr.so:_ZN2rr14ReplayTimeline34remove_breakpoints_and_watchpointsEv
librr.so:_ZN2rr14ReplayTimeline35unapply_breakpoints_and_watchpointsEv
librr.so:_ZN2rr14ReplayTimeline36singlestep_with_breakpoints_disabledEv
librr.so:_ZN2rr14ReplayTimeline37discard_past_reverse_exec_checkpointsENS0_18CheckpointStrategyE
librr.so:_ZN2rr14ReplayTimeline39discard_future_reverse_exec_checkpointsEv
librr.so:_ZN2rr14ReplayTimeline40update_strategy_and_fix_watchpoint_quirkERNS0_24ReplayStepToMarkStrategyERKNS_13ReplaySession15StepConstraintsERNS_12ReplayResultERKNS0_9ProtoMarkE
librr.so:_ZN2rr14ReplayTimeline43is_start_of_reverse_execution_barrier_eventEv
librr.so:_ZN2rr14ReplayTimeline4markEv
librr.so:_ZN2rr14ReplayTimeline9less_thanERKNS0_4MarkES3_
librr.so:_ZN2rr14ReplayTimelineC1ESt10shared_ptrINS_13ReplaySessionEERKNS2_5FlagsE
librr.so:_ZN2rr14ReplayTimelineC2ESt10shared_ptrINS_13ReplaySessionEERKNS2_5FlagsE
librr.so:_ZN2rr14ReplayTimelineD1Ev
librr.so:_ZN2rr14ReplayTimelineD2Ev
librr.so:_ZN2rr14ceil_page_sizeENS_10remote_ptrIvEE
librr.so:_ZN2rr14ceil_page_sizeEm
librr.so:_ZN2rr14default_actionEi
librr.so:_ZN2rr14read_elf_classERKNSt7__cxx1112basic_stringIcSt11char_traitsIcESaIcEEE
librr.so:_ZN2rr14rr_signal_maskEv
librr.so:_ZN2rr15check_for_leaksEv
librr.so:_ZN2rr15elf_reader_implERNS_9ElfReaderENS_13SupportedArchE
librr.so:_ZN2rr15floor_page_sizeENS_10remote_ptrIvEE
librr.so:_ZN2rr15floor_page_sizeEm
librr.so:_ZN2rr15from_x86_narrowERiRm
librr.so:_ZN2rr15notifying_abortEv
librr.so:_ZN2rr15ptrace_req_nameB5cxx11Ei
librr.so:_ZN2rr15set_all_loggingENS_8LogLevelE
librr.so:_ZN2rr15should_checksumERKNS_5EventEl
librr.so:_ZN2rr16CPUIDBugDetector18run_detection_codeEv
librr.so:_ZN2rr16CPUIDBugDetector36notify_reached_syscall_during_replayEPNS_10ReplayTaskE
librr.so:_ZN2rr16CompressedReader10get_bufferEPPKhPm
librr.so:_ZN2rr16CompressedReader10save_stateEv
librr.so:_ZN2rr16CompressedReader13discard_stateEv
librr.so:_ZN2rr16CompressedReader13refill_bufferEv
librr.so:_ZN2rr16CompressedReader13restore_stateEv
librr.so:_ZN2rr16CompressedReader4readEPvm
librr.so:_ZN2rr16CompressedReader4skipEm
librr.so:_ZN2rr16CompressedReader5closeEv
librr.so:_ZN2rr16CompressedReader6rewindEv
librr.so:_ZN2rr16CompressedReaderC1ERKNSt7__cxx1112basic_stringIcSt11char_traitsIcESaIcEEE
librr.so:_ZN2rr16CompressedReaderC1ERKS0_
librr.so:_ZN2rr16CompressedReaderC2ERKNSt7__cxx1112basic_stringIcSt11char_traitsIcESaIcEEE
librr.so:_ZN2rr16CompressedReaderC2ERKS0_
librr.so:_ZN2rr16CompressedReaderD1Ev
librr.so:_ZN2rr16CompressedReaderD2Ev
librr.so:_ZN2rr16CompressedWriter11do_compressEmmPhm
librr.so:_ZN2rr16CompressedWriter18compression_threadEv
librr.so:_ZN2rr16CompressedWriter18update_reservationENS0_8WaitFlagE
librr.so:_ZN2rr16CompressedWriter27compression_thread_callbackEPv
librr.so:_ZN2rr16CompressedWriter5closeENS0_4SyncE
librr.so:_ZN2rr16CompressedWriter5writeEPKvm
librr.so:_ZN2rr16CompressedWriterC1ERKNSt7__cxx1112basic_stringIcSt11char_traitsIcESaIcEEEmj
librr.so:_ZN2rr16CompressedWriterC2ERKNSt7__cxx1112basic_stringIcSt11char_traitsIcESaIcEEEmj
librr.so:_ZN2rr16CompressedWriterD1Ev
librr.so:_ZN2rr16CompressedWriterD2Ev
librr.so:_ZN2rr16DiversionSession14diversion_stepEPNS_4TaskENS_10RunCommandEi
librr.so:_ZN2rr16DiversionSessionC1Ev
librr.so:_ZN2rr16DiversionSessionC2Ev
librr.so:_ZN2rr16DiversionSessionD0Ev
librr.so:_ZN2rr16DiversionSessionD1Ev
librr.so:_ZN2rr16DiversionSessionD2Ev
librr.so:_ZN2rr16ProcFdDirMonitor15filter_getdentsEPNS_10RecordTaskE
librr.so:_ZN2rr16ProcFdDirMonitorC1EPNS_4TaskERKNSt7__cxx1112basic_stringIcSt11char_traitsIcESaIcEEE
librr.so:_ZN2rr16ProcFdDirMonitorC2EPNS_4TaskERKNSt7__cxx1112basic_stringIcSt11char_traitsIcESaIcEEE
librr.so:_ZN2rr16TaskSyscallState13reg_parameterEiRKNS_9ParamSizeENS_7ArgModeEPFbPNS_10RecordTaskENS_10remote_ptrIvEEPvE
librr.so:_ZN2rr16TaskSyscallState14done_preparingENS_10SwitchableE
librr.so:_ZN2rr16TaskSyscallState15eval_param_sizeEmRSt6vectorImSaImEE
librr.so:_ZN2rr16TaskSyscallState17mem_ptr_parameterENS_10remote_ptrIvEERKNS_9ParamSizeENS_7ArgModeEPFbPNS_10RecordTaskES2_PvE
librr.so:_ZN2rr16TaskSyscallState21abort_syscall_resultsEv
librr.so:_ZN2rr16TaskSyscallState23done_preparing_internalENS_10SwitchableE
librr.so:_ZN2rr16TaskSyscallState23process_syscall_resultsEv
librr.so:_ZN2rr16TaskSyscallState27relocate_pointer_to_scratchENS_10remote_ptrIvEE
librr.so:_ZN2rr16cpuid_compatibleERKSt6vectorINS_11CPUIDRecordESaIS1_EE
librr.so:_ZN2rr16disabled_insn_atEPNS_4TaskENS_15remote_code_ptrE
librr.so:_ZN2rr16dump_binary_dataEPKcS1_PKjmNS_10remote_ptrIvEE
librr.so:_ZN2rr16flush_log_bufferEv
librr.so:_ZN2rr16process_grow_mapEPNS_10ReplayTaskE
librr.so:_ZN2rr16running_under_rrEv
librr.so:_ZN2rr16set_arch_siginfoERK9siginfo_tNS_13SupportedArchEPvm
librr.so:_ZN2rr17CleanFatalOstreamC1EPKciS2_
librr.so:_ZN2rr17CleanFatalOstreamC2EPKciS2_
librr.so:_ZN2rr17CleanFatalOstreamD1Ev
librr.so:_ZN2rr17CleanFatalOstreamD2Ev
librr.so:_ZN2rr17GdbCommandHandler10gdb_macrosB5cxx11Ev
librr.so:_ZN2rr17GdbCommandHandler15process_commandERNS_9GdbServerEPNS_4TaskENSt7__cxx1112basic_stringIcSt11char_traitsIcESaIcEEE
librr.so:_ZN2rr17GdbCommandHandler16command_for_nameERKNSt7__cxx1112basic_stringIcSt11char_traitsIcESaIcEEE
librr.so:_ZN2rr17GdbCommandHandler16register_commandERNS_10GdbCommandE
librr.so:_ZN2rr17KernelMapIterator4initEv
librr.so:_ZN2rr17KernelMapIteratorC1EPNS_4TaskE
librr.so:_ZN2rr17KernelMapIteratorC2EPNS_4TaskE
librr.so:_ZN2rr17KernelMapIteratorD1Ev
librr.so:_ZN2rr17KernelMapIteratorD2Ev
librr.so:_ZN2rr17KernelMapIteratorppEv
librr.so:_ZN2rr17ReturnAddressListC1EPNS_4TaskE
librr.so:_ZN2rr17ReturnAddressListC2EPNS_4TaskE
librr.so:_ZN2rr17all_cpuid_recordsEv
librr.so:_ZN2rr17arm_desched_eventEPNS_10RecordTaskE
librr.so:_ZN2rr17disabled_insn_lenENS_12DisabledInsnE
librr.so:_ZN2rr17find_cpuid_recordERKSt6vectorINS_11CPUIDRecordESaIS1_EEjj
librr.so:_ZN2rr17invoke_checkpointERNS_9GdbServerEPNS_4TaskERKSt6vectorINSt7__cxx1112basic_stringIcSt11char_traitsIcESaIcEEESaISA_EE
librr.so:_ZN2rr17is_zombie_processEi
librr.so:_ZN2rr17monotonic_now_secEv
librr.so:_ZN2rr17ptrace_event_nameB5cxx11Ei
librr.so:_ZN2rr18AutoRemoteSyscalls10setup_pathEb
librr.so:_ZN2rr18AutoRemoteSyscalls11retrieve_fdEi
librr.so:_ZN2rr18AutoRemoteSyscalls12syscall_baseEiRNS_9RegistersE
librr.so:_ZN2rr18AutoRemoteSyscalls16restore_state_toEPNS_4TaskE
librr.so:_ZN2rr18AutoRemoteSyscalls20check_syscall_resultEli
librr.so:_ZN2rr18AutoRemoteSyscalls23infallible_mmap_syscallENS_10remote_ptrIvEEmiiim
librr.so:_ZN2rr18AutoRemoteSyscalls23maybe_fix_stack_pointerEv
librr.so:_ZN2rr18AutoRemoteSyscalls24infallible_lseek_syscallEili
librr.so:_ZN2rr18AutoRemoteSyscallsC1EPNS_4TaskENS0_16MemParamsEnabledE
librr.so:_ZN2rr18AutoRemoteSyscallsC2EPNS_4TaskENS0_16MemParamsEnabledE
librr.so:_ZN2rr18AutoRemoteSyscallsD1Ev
librr.so:_ZN2rr18AutoRemoteSyscallsD2Ev
librr.so:_ZN2rr18MmappedFileMonitor9did_writeEPNS_4TaskERKSt6vectorINS_11FileMonitor5RangeESaIS5_EERNS4_10LazyOffsetE
librr.so:_ZN2rr18MmappedFileMonitorC1EPNS_4TaskESt10shared_ptrINS_7EmuFileEE
librr.so:_ZN2rr18MmappedFileMonitorC1EPNS_4TaskEi
librr.so:_ZN2rr18MmappedFileMonitorC2EPNS_4TaskESt10shared_ptrINS_7EmuFileEE
librr.so:_ZN2rr18MmappedFileMonitorC2EPNS_4TaskEi
librr.so:_ZN2rr18has_effective_capsEm
librr.so:_ZN2rr18is_logging_enabledENS_8LogLevelEPKc
librr.so:_ZN2rr18should_dump_memoryERKNS_5EventEl
librr.so:_ZN2rr19dump_process_memoryEPNS_4TaskElPKc
librr.so:_ZN2rr19rec_prepare_syscallEPNS_10RecordTaskE
librr.so:_ZN2rr19rec_process_syscallEPNS_10RecordTaskE
librr.so:_ZN2rr19rep_process_syscallEPNS_10ReplayTaskEPNS_15ReplayTraceStepE
librr.so:_ZN2rr19syscall_instructionENS_13SupportedArchE
librr.so:_ZN2rr19xsave_native_layoutEv
librr.so:_ZN2rr20MagicSaveDataMonitor9did_writeEPNS_4TaskERKSt6vectorINS_11FileMonitor5RangeESaIS5_EERNS4_10LazyOffsetE
librr.so:_ZN2rr20cpuid_faulting_worksEv
librr.so:_ZN2rr20disarm_desched_eventEPNS_10RecordTaskE
librr.so:_ZN2rr20format_dump_filenameEPNS_4TaskElPKcPcm
librr.so:_ZN2rr20resize_shmem_segmentERNS_8ScopedFdEm
librr.so:_ZN2rr21EmergencyDebugOstreamC1EbPKNS_4TaskEPKciS5_S5_
librr.so:_ZN2rr21EmergencyDebugOstreamC2EbPKNS_4TaskEPKciS5_S5_
librr.so:_ZN2rr21EmergencyDebugOstreamD1Ev
librr.so:_ZN2rr21EmergencyDebugOstreamD2Ev
librr.so:_ZN2rr21MonitoredSharedMemory13maybe_monitorEPNS_10RecordTaskERKNSt7__cxx1112basic_stringIcSt11char_traitsIcESaIcEEERKNS_12AddressSpace7MappingEim
librr.so:_ZN2rr21MonitoredSharedMemory17check_for_changesEPNS_10RecordTaskERNS_12AddressSpace7MappingE
librr.so:_ZN2rr21MonitoredSharedMemory8subrangeEmm
librr.so:_ZN2rr21MonitoredSharedMemory9check_allEPNS_10RecordTaskE
librr.so:_ZN2rr21MonitoredSharedMemoryD1Ev
librr.so:_ZN2rr21MonitoredSharedMemoryD2Ev
librr.so:_ZN2rr21SeccompFilterRewriter30install_patched_seccomp_filterEPNS_10RecordTaskE
librr.so:_ZN2rr21SeccompFilterRewriter30map_filter_data_to_real_resultEPNS_10RecordTaskEtPj
librr.so:_ZN2rr21create_temporary_fileEPKc
librr.so:_ZN2rr21raise_resource_limitsEv
librr.so:_ZN2rr22from_x86_narrow_signedERiRm
librr.so:_ZN2rr22shm_flags_to_mmap_protEi
librr.so:_ZN2rr23checksum_process_memoryEPNS_4TaskEl
librr.so:_ZN2rr23invoke_info_checkpointsERNS_9GdbServerEPNS_4TaskERKSt6vectorINSt7__cxx1112basic_stringIcSt11char_traitsIcESaIcEEESaISA_EE
librr.so:_ZN2rr23is_deterministic_signalEPNS_4TaskE
librr.so:_ZN2rr23read_proc_status_fieldsB5cxx11EiPKcS1_S1_
librr.so:_ZN2rr23rep_after_enter_syscallEPNS_10ReplayTaskE
librr.so:_ZN2rr23should_copy_mmap_regionERKNS_13KernelMappingERK4stat
librr.so:_ZN2rr23validate_process_memoryEPNS_4TaskEl
librr.so:_ZN2rr23xsave_layout_from_traceESt6vectorINS_11CPUIDRecordESaIS1_EE
librr.so:_ZN2rr24extract_clone_parametersEPNS_4TaskE
librr.so:_ZN2rr24invoke_delete_checkpointERNS_9GdbServerEPNS_4TaskERKSt6vectorINSt7__cxx1112basic_stringIcSt11char_traitsIcESaIcEEESaISA_EE
librr.so:_ZN2rr24is_string_instruction_atEPNS_4TaskENS_15remote_code_ptrE
librr.so:_ZN2rr24probably_not_interactiveEi
librr.so:_ZN2rr25NewlineTerminatingOstreamC1ENS_8LogLevelEPKciS3_
librr.so:_ZN2rr25NewlineTerminatingOstreamC2ENS_8LogLevelEPKciS3_
librr.so:_ZN2rr25NewlineTerminatingOstreamD1Ev
librr.so:_ZN2rr25NewlineTerminatingOstreamD2Ev
librr.so:_ZN2rr25VirtualPerfCounterMonitor12emulate_readEPNS_10RecordTaskERKSt6vectorINS_11FileMonitor5RangeESaIS5_EERNS4_10LazyOffsetEPm
librr.so:_ZN2rr25VirtualPerfCounterMonitor13emulate_fcntlEPNS_10RecordTaskEPm
librr.so:_ZN2rr25VirtualPerfCounterMonitor13emulate_ioctlEPNS_10RecordTaskEPm
librr.so:_ZN2rr25VirtualPerfCounterMonitor17should_virtualizeERK15perf_event_attr
librr.so:_ZN2rr25VirtualPerfCounterMonitor22maybe_enable_interruptEPNS_4TaskEm
librr.so:_ZN2rr25VirtualPerfCounterMonitor33interrupting_virtual_pmc_for_taskEPNS_4TaskE
librr.so:_ZN2rr25VirtualPerfCounterMonitorC1EPNS_4TaskES2_RK15perf_event_attr
librr.so:_ZN2rr25VirtualPerfCounterMonitorC2EPNS_4TaskES2_RK15perf_event_attr
librr.so:_ZN2rr25VirtualPerfCounterMonitorD0Ev
librr.so:_ZN2rr25VirtualPerfCounterMonitorD1Ev
librr.so:_ZN2rr25VirtualPerfCounterMonitorD2Ev
librr.so:_ZN2rr25at_x86_string_instructionEPNS_4TaskE
librr.so:_ZN2rr25clone_flags_to_task_flagsEi
librr.so:_ZN2rr25is_at_syscall_instructionEPNS_4TaskENS_15remote_code_ptrE
librr.so:_ZN2rr25uses_invisible_guard_pageEv
librr.so:_ZN2rr26force_close_record_sessionEv
librr.so:_ZN2rr26rec_abort_prepared_syscallEPNS_10RecordTaskE
librr.so:_ZN2rr26rep_prepare_run_to_syscallEPNS_10ReplayTaskEPNS_15ReplayTraceStepE
librr.so:_ZN2rr26syscall_instruction_lengthENS_13SupportedArchE
librr.so:_ZN2rr27rec_prepare_restart_syscallEPNS_10RecordTaskE
librr.so:_ZN2rr28get_syscall_instruction_archEPNS_4TaskENS_15remote_code_ptrEPNS_13SupportedArchE
librr.so:_ZN2rr28handle_syscallbuf_breakpointEPNS_10RecordTaskE
librr.so:_ZN2rr30trace_instructions_up_to_eventEl
librr.so:_ZN2rr31restore_initial_resource_limitsEv
librr.so:_ZN2rr32fast_forward_through_instructionEPNS_4TaskENS_13ResumeRequestERKSt6vectorIPKNS_9RegistersESaIS6_EE
librr.so:_ZN2rr40maybe_at_or_after_x86_string_instructionEPNS_4TaskE
librr.so:_ZN2rr4Task10copy_stateERKNS0_13CapturedStateE
librr.so:_ZN2rr4Task10extra_regsEv
librr.so:_ZN2rr4Task10flush_regsEv
librr.so:_ZN2rr4Task10read_c_strB5cxx11ENS_10remote_ptrIcEE
librr.so:_ZN2rr4Task11did_waitpidENS_10WaitStatusE
librr.so:_ZN2rr4Task11get_siginfoEv
librr.so:_ZN2rr4Task11open_mem_fdEv
librr.so:_ZN2rr4Task12debug_statusEv
librr.so:_ZN2rr4Task12exit_syscallEv
librr.so:_ZN2rr4Task12os_fork_intoEPNS_7SessionE
librr.so:_ZN2rr4Task13capture_stateEv
librr.so:_ZN2rr4Task13enter_syscallEv
librr.so:_ZN2rr4Task13get_debug_regEm
librr.so:_ZN2rr4Task13os_clone_intoERKNS0_13CapturedStateERNS_18AutoRemoteSyscallsE
librr.so:_ZN2rr4Task13set_debug_regEmm
librr.so:_ZN2rr4Task13update_prnameENS_10remote_ptrIvEE
librr.so:_ZN2rr4Task14set_debug_regsERKSt6vectorINS_11WatchConfigESaIS2_EE
librr.so:_ZN2rr4Task14set_extra_regsERKNS_14ExtraRegistersE
librr.so:_ZN2rr4Task15at_preload_initEv
librr.so:_ZN2rr4Task15destroy_buffersEv
librr.so:_ZN2rr4Task15fallible_ptraceEiNS_10remote_ptrIvEEPv
librr.so:_ZN2rr4Task15file_name_of_fdB5cxx11Ei
librr.so:_ZN2rr4Task15on_syscall_exitEiNS_13SupportedArchERKNS_9RegistersE
librr.so:_ZN2rr4Task15ptrace_if_aliveEiNS_10remote_ptrIvEEPv
librr.so:_ZN2rr4Task15set_thread_areaENS_10remote_ptrI9user_descEE
librr.so:_ZN2rr4Task16reset_syscallbufEv
librr.so:_ZN2rr4Task16resume_executionENS_13ResumeRequestENS_11WaitRequestENS_12TicksRequestEi
librr.so:_ZN2rr4Task16set_debug_statusEm
librr.so:_ZN2rr4Task17canonicalize_regsENS_13SupportedArchE
librr.so:_ZN2rr4Task17close_buffers_forERNS_18AutoRemoteSyscallsEPS0_
librr.so:_ZN2rr4Task17post_exec_syscallEv
librr.so:_ZN2rr4Task17read_bytes_helperENS_10remote_ptrIvEElPvPb
librr.so:_ZN2rr4Task17read_bytes_ptraceENS_10remote_ptrIvEElPv
librr.so:_ZN2rr4Task17unmap_buffers_forERNS_18AutoRemoteSyscallsEPS0_NS_10remote_ptrI14syscallbuf_hdrEE
librr.so:_ZN2rr4Task18stored_record_sizeENS_10remote_ptrIK17syscallbuf_recordEE
librr.so:_ZN2rr4Task18write_bytes_helperENS_10remote_ptrIvEElPKvPbj
librr.so:_ZN2rr4Task18write_bytes_ptraceENS_10remote_ptrIvEElPKv
librr.so:_ZN2rr4Task19detect_syscall_archEv
librr.so:_ZN2rr4Task19init_syscall_bufferERNS_18AutoRemoteSyscallsENS_10remote_ptrIvEE
librr.so:_ZN2rr4Task19read_bytes_fallibleENS_10remote_ptrIvEElPv
librr.so:_ZN2rr4Task20compute_trap_reasonsEv
librr.so:_ZN2rr4Task20wait_unexpected_exitEv
librr.so:_ZN2rr4Task21open_mem_fd_if_neededEv
librr.so:_ZN2rr4Task21preload_thread_localsEv
librr.so:_ZN2rr4Task21set_syscallbuf_lockedEb
librr.so:_ZN2rr4Task22next_syscallbuf_recordEv
librr.so:_ZN2rr4Task23emulate_get_thread_areaEiR9user_desc
librr.so:_ZN2rr4Task23emulate_set_thread_areaEi9user_desc
librr.so:_ZN2rr4Task23finish_emulated_syscallEv
librr.so:_ZN2rr4Task24flush_inconsistent_stateEv
librr.so:_ZN2rr4Task24is_desched_event_syscallEv
librr.so:_ZN2rr4Task25clone_syscall_is_completeEPiNS_13SupportedArchE
librr.so:_ZN2rr4Task25move_ip_before_breakpointEv
librr.so:_ZN2rr4Task27fetch_preload_thread_localsEv
librr.so:_ZN2rr4Task27setup_preload_thread_localsEv
librr.so:_ZN2rr4Task30activate_preload_thread_localsEv
librr.so:_ZN2rr4Task31maybe_workaround_singlestep_bugEv
librr.so:_ZN2rr4Task32exit_syscall_and_prepare_restartEv
librr.so:_ZN2rr4Task4waitEd
librr.so:_ZN2rr4Task5cloneENS0_11CloneReasonEiNS_10remote_ptrIvEES3_NS2_IiEEiijPNS_7SessionE
librr.so:_ZN2rr4Task5spawnERNS_7SessionERKNS_8ScopedFdERKNS_11TraceStreamERKNSt7__cxx1112basic_stringIcSt11char_traitsIcESaIcEEERKSt6vectorISE_SaISE_EESL_i
librr.so:_ZN2rr4Task7destroyEv
librr.so:_ZN2rr4Task7open_fdEii
librr.so:_ZN2rr4Task7stat_fdEi
librr.so:_ZN2rr4Task7xptraceEiNS_10remote_ptrIvEEPv
librr.so:_ZN2rr4Task8os_cloneENS0_11CloneReasonEPNS_7SessionERNS_18AutoRemoteSyscallsEijjNS_10remote_ptrIvEENS6_IiEES7_S8_
librr.so:_ZN2rr4Task8set_regsERKNS_9RegistersE
librr.so:_ZN2rr4Task8try_waitEv
librr.so:_ZN2rr4Task9post_execERKNSt7__cxx1112basic_stringIcSt11char_traitsIcESaIcEEE
librr.so:_ZN2rr4TaskC1ERNS_7SessionEiijNS_13SupportedArchE
librr.so:_ZN2rr4TaskC2ERNS_7SessionEiijNS_13SupportedArchE
librr.so:_ZN2rr4TaskD0Ev
librr.so:_ZN2rr4TaskD1Ev
librr.so:_ZN2rr4TaskD2Ev
librr.so:_ZN2rr5EmuFs10clone_fileESt10shared_ptrINS_7EmuFileEE
librr.so:_ZN2rr5EmuFs13get_or_createERKNS_13KernelMappingEm
librr.so:_ZN2rr5EmuFs6FileIdC1ERKNS_13KernelMappingE
librr.so:_ZN2rr5EmuFs6FileIdC2ERKNS_13KernelMappingE
librr.so:_ZN2rr5EmuFs6createEv
librr.so:_ZN2rr5EmuFsC1Ev
librr.so:_ZN2rr5EmuFsC2Ev
librr.so:_ZN2rr5Event9transformENS_9EventTypeE
librr.so:_ZN2rr5EventC1ERKS0_
librr.so:_ZN2rr5EventC2ERKS0_
librr.so:_ZN2rr5EventD1Ev
librr.so:_ZN2rr5EventD2Ev
librr.so:_ZN2rr5EventaSERKS0_
librr.so:_ZN2rr5Flags12get_for_initEv
librr.so:_ZN2rr5cpuidEjj
librr.so:_ZN2rr5crc32EjPhm
librr.so:_ZN2rr6ftrace20start_function_graphERKNS_7SessionERKNS_11TraceStreamE
librr.so:_ZN2rr6ftrace4stopEv
librr.so:_ZN2rr6ftrace5writeERKNSt7__cxx1112basic_stringIcSt11char_traitsIcESaIcEEE
librr.so:_ZN2rr7Command10print_helpEP8_IO_FILE
librr.so:_ZN2rr7Command12parse_optionERSt6vectorINSt7__cxx1112basic_stringIcSt11char_traitsIcESaIcEEESaIS7_EEPKNS_10OptionSpecEmPNS_12ParsedOptionE
librr.so:_ZN2rr7Command13parse_literalERSt6vectorINSt7__cxx1112basic_stringIcSt11char_traitsIcESaIcEEESaIS7_EEPKc
librr.so:_ZN2rr7Command14print_help_allEP8_IO_FILE
librr.so:_ZN2rr7Command16command_for_nameERKNSt7__cxx1112basic_stringIcSt11char_traitsIcESaIcEEE
librr.so:_ZN2rr7Command17less_than_by_nameEPS0_S1_
librr.so:_ZN2rr7Command17verify_not_optionERSt6vectorINSt7__cxx1112basic_stringIcSt11char_traitsIcESaIcEEESaIS7_EE
librr.so:_ZN2rr7Command24parse_optional_trace_dirERSt6vectorINSt7__cxx1112basic_stringIcSt11char_traitsIcESaIcEEESaIS7_EEPS7_
librr.so:_ZN2rr7CommandC1EPKcS2_
librr.so:_ZN2rr7CommandC2EPKcS2_
librr.so:_ZN2rr7EmuFile11ensure_sizeEm
librr.so:_ZN2rr7EmuFile5cloneERNS_5EmuFsE
librr.so:_ZN2rr7EmuFile6createERNS_5EmuFsERKNSt7__cxx1112basic_stringIcSt11char_traitsIcESaIcEEEmmm
librr.so:_ZN2rr7EmuFile6updateEmmm
librr.so:_ZN2rr7EmuFileC1ERNS_5EmuFsEONS_8ScopedFdERKNSt7__cxx1112basic_stringIcSt11char_traitsIcESaIcEEESC_mmm
librr.so:_ZN2rr7EmuFileC2ERNS_5EmuFsEONS_8ScopedFdERKNSt7__cxx1112basic_stringIcSt11char_traitsIcESaIcEEESC_mmm
librr.so:_ZN2rr7EmuFileD1Ev
librr.so:_ZN2rr7EmuFileD2Ev
librr.so:_ZN2rr7FdTable10will_writeEPNS_4TaskEi
librr.so:_ZN2rr7FdTable11add_monitorEiPNS_11FileMonitorE
librr.so:_ZN2rr7FdTable11get_monitorEi
librr.so:_ZN2rr7FdTable12emulate_readEiPNS_10RecordTaskERKSt6vectorINS_11FileMonitor5RangeESaIS5_EERNS4_10LazyOffsetEPm
librr.so:_ZN2rr7FdTable13emulate_fcntlEiPNS_10RecordTaskEPm
librr.so:_ZN2rr7FdTable13emulate_ioctlEiPNS_10RecordTaskEPm
librr.so:_ZN2rr7FdTable15filter_getdentsEiPNS_10RecordTaskE
librr.so:_ZN2rr7FdTable16close_after_execEPNS_10ReplayTaskERKSt6vectorIiSaIiEE
librr.so:_ZN2rr7FdTable23fds_to_close_after_execEPNS_10RecordTaskE
librr.so:_ZN2rr7FdTable28init_syscallbuf_fds_disabledEPNS_4TaskE
librr.so:_ZN2rr7FdTable30update_syscallbuf_fds_disabledEi
librr.so:_ZN2rr7FdTable7did_dupEii
librr.so:_ZN2rr7FdTable8is_rr_fdEi
librr.so:_ZN2rr7FdTable9did_closeEi
librr.so:_ZN2rr7FdTable9did_writeEPNS_4TaskEiRKSt6vectorINS_11FileMonitor5RangeESaIS5_EERNS4_10LazyOffsetE
librr.so:_ZN2rr7Session10on_destroyEPNS_11ThreadGroupE
librr.so:_ZN2rr7Session10on_destroyEPNS_12AddressSpaceE
librr.so:_ZN2rr7Session10on_destroyEPNS_4TaskE
librr.so:_ZN2rr7Session13copy_state_toERS0_RNS_5EmuFsES3_
librr.so:_ZN2rr7Session13steal_mappingERNS_18AutoRemoteSyscallsERKNS_12AddressSpace7MappingEOSt10shared_ptrINS_21MonitoredSharedMemoryEE
librr.so:_ZN2rr7Session14kill_all_tasksEv
librr.so:_ZN2rr7Session17rr_mapping_prefixEv
librr.so:_ZN2rr7Session18create_shared_mmapERNS_18AutoRemoteSyscallsEmNS_10remote_ptrIvEEPKciiOSt10shared_ptrINS_21MonitoredSharedMemoryEE
librr.so:_ZN2rr7Session19make_private_sharedERNS_18AutoRemoteSyscallsENS_12AddressSpace7MappingE
librr.so:_ZN2rr7Session20recreate_shared_mmapERNS_18AutoRemoteSyscallsERKNS_12AddressSpace7MappingENS0_16PreserveContentsEOSt10shared_ptrINS_21MonitoredSharedMemoryEE
librr.so:_ZN2rr7Session22diagnose_debugger_trapEPNS_4TaskENS_10RunCommandE
librr.so:_ZN2rr7Session28check_for_watchpoint_changesEPNS_4TaskERNS_11BreakStatusE
librr.so:_ZN2rr7Session28create_spawn_task_error_pipeEv
librr.so:_ZN2rr7Session5cloneEPNS_4TaskESt10shared_ptrINS_11ThreadGroupEE
librr.so:_ZN2rr7Session5cloneEPNS_4TaskESt10shared_ptrINS_12AddressSpaceEE
librr.so:_ZN2rr7Session5cloneEPNS_4TaskEiNS_10remote_ptrIvEES4_NS3_IiEEii
librr.so:_ZN2rr7Session8new_taskEiijNS_13SupportedArchE
librr.so:_ZN2rr7Session9create_tgEPNS_4TaskE
librr.so:_ZN2rr7Session9create_vmEPNS_4TaskERKNSt7__cxx1112basic_stringIcSt11char_traitsIcESaIcEEEj
librr.so:_ZN2rr7Session9on_createEPNS_11ThreadGroupE
librr.so:_ZN2rr7Session9on_createEPNS_4TaskE
librr.so:_ZN2rr7Session9post_execEv
librr.so:_ZN2rr7SessionC1ERKS0_
librr.so:_ZN2rr7SessionC1Ev
librr.so:_ZN2rr7SessionC2ERKS0_
librr.so:_ZN2rr7SessionC2Ev
librr.so:_ZN2rr7SessionD0Ev
librr.so:_ZN2rr7SessionD1Ev
librr.so:_ZN2rr7SessionD2Ev
librr.so:_ZN2rr7tmp_dirEv
librr.so:_ZN2rr7xmallocEm
librr.so:_ZN2rr8ThreadDb10initializeEv
librr.so:_ZN2rr8ThreadDb12load_libraryEv
librr.so:_ZN2rr8ThreadDb12query_symbolEPKcPNS_10remote_ptrIvEE
librr.so:_ZN2rr8ThreadDb15get_tls_addressEPNS_11ThreadGroupEimNS_10remote_ptrIvEEPS4_
librr.so:_ZN2rr8ThreadDb15register_symbolERKNSt7__cxx1112basic_stringIcSt11char_traitsIcESaIcEEENS_10remote_ptrIvEE
librr.so:_ZN2rr8ThreadDb25get_symbols_and_clear_mapB5cxx11EPNS_11ThreadGroupE
librr.so:_ZN2rr8ThreadDbC1Ei
librr.so:_ZN2rr8ThreadDbC2Ei
librr.so:_ZN2rr8ThreadDbD1Ev
librr.so:_ZN2rr8ThreadDbD2Ev
librr.so:_ZN2rr9ElfReader12read_dynamicEv
librr.so:_ZN2rr9ElfReader12read_symbolsEPKcS2_
librr.so:_ZN2rr9ElfReader14addr_to_offsetEmRm
librr.so:_ZN2rr9ElfReader14read_debuglinkEv
librr.so:_ZN2rr9ElfReader2okEv
librr.so:_ZN2rr9ElfReader4implEv
librr.so:_ZN2rr9ElfReaderC1ENS_13SupportedArchE
librr.so:_ZN2rr9ElfReaderC2ENS_13SupportedArchE
librr.so:_ZN2rr9ElfReaderD0Ev
librr.so:_ZN2rr9ElfReaderD1Ev
librr.so:_ZN2rr9ElfReaderD2Ev
librr.so:_ZN2rr9GdbServer10launch_gdbERNS_8ScopedFdERKNSt7__cxx1112basic_stringIcSt11char_traitsIcESaIcEEERKSt6vectorIS8_SaIS8_EE
librr.so:_ZN2rr9GdbServer11init_scriptB5cxx11Ev
librr.so:_ZN2rr9GdbServer12serve_replayERKNS0_15ConnectionFlagsE
librr.so:_ZN2rr9GdbServer14debug_one_stepERNS_10GdbRequestE
librr.so:_ZN2rr9GdbServer15emergency_debugEPNS_4TaskE
librr.so:_ZN2rr9GdbServer15restart_sessionERKNS_10GdbRequestE
librr.so:_ZN2rr9GdbServer17activate_debuggerEv
librr.so:_ZN2rr9GdbServer17detach_or_restartERKNS_10GdbRequestEPNS0_14ContinueOrStopE
librr.so:_ZN2rr9GdbServer17maybe_notify_stopERKNS_10GdbRequestERKNS_11BreakStatusE
librr.so:_ZN2rr9GdbServer19handle_exited_stateERNS_10GdbRequestE
librr.so:_ZN2rr9GdbServer21dispatch_regs_requestERKNS_9RegistersERKNS_14ExtraRegistersE
librr.so:_ZN2rr9GdbServer25dispatch_debugger_requestERNS_7SessionERKNS_10GdbRequestENS0_11ReportStateE
librr.so:_ZN2rr9GdbServer25process_debugger_requestsENS0_11ReportStateE
librr.so:_ZN2rr9GdbServer27maybe_intercept_mem_requestEPNS_4TaskERKNS_10GdbRequestEPSt6vectorIhSaIhEE
librr.so:_ZN2rr9GdbServer28try_lazy_reverse_singlestepsERNS_10GdbRequestE
librr.so:_ZN2rr9GdbServer34diverter_process_debugger_requestsERNS_16DiversionSessionERjPNS_10GdbRequestE
librr.so:_ZN2rr9GdbServer6divertERNS_13ReplaySessionE
librr.so:_ZN2rr9GdbServer7get_regERKNS_9RegistersERKNS_14ExtraRegistersENS_11GdbRegisterE
librr.so:_ZN2rr9GdbServer9at_targetEv
librr.so:_ZN2rr9GdbServer9open_fileERNS_7SessionERKNSt7__cxx1112basic_stringIcSt11char_traitsIcESaIcEEE
librr.so:_ZN2rr9GdbServerC1ERSt10unique_ptrINS_13GdbConnectionESt14default_deleteIS2_EEPNS_4TaskE
librr.so:_ZN2rr9GdbServerC2ERSt10unique_ptrINS_13GdbConnectionESt14default_deleteIS2_EEPNS_4TaskE
librr.so:_ZN2rr9PsCommand3runERSt6vectorINSt7__cxx1112basic_stringIcSt11char_traitsIcESaIcEEESaIS7_EE
librr.so:_ZN2rr9Registers14write_registerENS_11GdbRegisterEPKvm
librr.so:_ZN2rr9Registers15set_from_ptraceERK16user_regs_struct
librr.so:_ZN2rr9Registers22compare_register_filesEPNS_10ReplayTaskEPKcRKS0_S4_S6_NS_16MismatchBehaviorE
librr.so:_ZN2rr9Registers22compare_registers_archINS_7X64ArchEEEbPKcRKS0_S4_S6_NS_16MismatchBehaviorE
librr.so:_ZN2rr9Registers22compare_registers_archINS_7X86ArchEEEbPKcRKS0_S4_S6_NS_16MismatchBehaviorE
librr.so:_ZN2rr9Registers24set_from_ptrace_for_archENS_13SupportedArchEPKvm
librr.so:_ZN2rr9Registers29write_register_by_user_offsetEmm
librr.so:_ZN2rr9Registers31compare_register_files_internalEPKcRKS0_S2_S4_NS_16MismatchBehaviorE
librr.so:_ZN2rr9Registers9set_flagsEm
librr.so:_ZN2rr9Scheduler10on_destroyEPNS_10RecordTaskE
librr.so:_ZN2rr9Scheduler10rescheduleENS_10SwitchableE
librr.so:_ZN2rr9Scheduler14in_stable_exitEPNS_10RecordTaskE
librr.so:_ZN2rr9Scheduler16is_task_runnableEPNS_10RecordTaskEPb
librr.so:_ZN2rr9Scheduler16set_enable_chaosEb
librr.so:_ZN2rr9Scheduler19setup_new_timesliceEv
librr.so:_ZN2rr9Scheduler20get_round_robin_taskEv
librr.so:_ZN2rr9Scheduler20update_task_priorityEPNS_10RecordTaskEi
librr.so:_ZN2rr9Scheduler22choose_random_priorityEPNS_10RecordTaskE
librr.so:_ZN2rr9Scheduler22maybe_reset_prioritiesEd
librr.so:_ZN2rr9Scheduler22treat_as_high_priorityEPNS_10RecordTaskE
librr.so:_ZN2rr9Scheduler23find_next_runnable_taskEPNS_10RecordTaskEPbi
librr.so:_ZN2rr9Scheduler23validate_scheduled_taskEv
librr.so:_ZN2rr9Scheduler24schedule_one_round_robinEPNS_10RecordTaskE
librr.so:_ZN2rr9Scheduler26maybe_pop_round_robin_taskEPNS_10RecordTaskE
librr.so:_ZN2rr9Scheduler29update_task_priority_internalEPNS_10RecordTaskEi
librr.so:_ZN2rr9Scheduler30in_high_priority_only_intervalEd
librr.so:_ZN2rr9Scheduler32get_next_task_with_same_priorityEPNS_10RecordTaskE
librr.so:_ZN2rr9Scheduler40maybe_reset_high_priority_only_intervalsEd
librr.so:_ZN2rr9Scheduler9on_createEPNS_10RecordTaskE
librr.so:_ZN2rr9SchedulerC1ERNS_13RecordSessionE
librr.so:_ZN2rr9SchedulerC2ERNS_13RecordSessionE
librr.so:_ZN2rr9copy_fileEii
librr.so:_ZN2rr9page_sizeEv
librr.so:_ZN2rr9real_pathERKNSt7__cxx1112basic_stringIcSt11char_traitsIcESaIcEEE
librr.so:_ZN2rr9write_allEiPKvm
librr.so:_ZN2rrlsERSoNS_10WaitStatusE
librr.so:_ZN2rrlsERSoNS_15remote_code_ptrE
librr.so:_ZN2rrlsERSoRK9siginfo_t
librr.so:_ZN2rrlsERSoRKNS_14ReplayTimeline12InternalMarkE
librr.so:_ZN2rrlsERSoRKNS_14ReplayTimeline4MarkE
librr.so:_ZN2rrlsERSoRKNS_14ReplayTimeline7MarkKeyE
librr.so:_ZN2rrlsERSoRKNS_14ReplayTimeline9ProtoMarkE
librr.so:_ZN2rrlsERSoRKNS_9RegistersE
librr.so:_ZN2rrlsERSoRKSt6vectorIhSaIhEE
librr.so:_ZN2rrltERKNS_8FileHashES2_
librr.so:_ZNK2rr10RecordTask11desched_recEv
librr.so:_ZNK2rr10RecordTask12trace_writerEv
librr.so:_ZNK2rr10RecordTask13signal_actionEi
librr.so:_ZNK2rr10RecordTask14is_sig_ignoredEi
librr.so:_ZNK2rr10RecordTask14may_be_blockedEv
librr.so:_ZNK2rr10RecordTask15has_stashed_sigEi
librr.so:_ZNK2rr10RecordTask15is_fatal_signalEiNS_19SignalDeterministicE
librr.so:_ZNK2rr10RecordTask15sig_dispositionEi
librr.so:_ZNK2rr10RecordTask18log_pending_eventsEv
librr.so:_ZNK2rr10RecordTask22at_may_restart_syscallEv
librr.so:_ZNK2rr10RecordTask22running_inside_deschedEv
librr.so:_ZNK2rr10RecordTask23get_signal_user_handlerEi
librr.so:_ZNK2rr10RecordTask23signal_has_user_handlerEi
librr.so:_ZNK2rr10RecordTask27peek_stashed_sig_to_deliverEv
librr.so:_ZNK2rr10RecordTask28signal_handler_takes_siginfoEi
librr.so:_ZNK2rr10RecordTask37has_stashed_sig_not_synthetic_SIGCHLDEv
librr.so:_ZNK2rr10RecordTask7sessionEv
librr.so:_ZNK2rr10ReplayTask12trace_readerEv
librr.so:_ZNK2rr10ReplayTask7sessionEv
librr.so:_ZNK2rr10TraceFrame4dumpEP8_IO_FILE
librr.so:_ZNK2rr10TraceFrame8dump_rawEP8_IO_FILE
librr.so:_ZNK2rr10WaitStatus10group_stopEv
librr.so:_ZNK2rr10WaitStatus10is_syscallEv
librr.so:_ZNK2rr10WaitStatus12ptrace_eventEv
librr.so:_ZNK2rr10WaitStatus13ptrace_signalEv
librr.so:_ZNK2rr10WaitStatus4typeEv
librr.so:_ZNK2rr10WaitStatus8stop_sigEv
librr.so:_ZNK2rr10WaitStatus9exit_codeEv
librr.so:_ZNK2rr10WaitStatus9fatal_sigEv
librr.so:_ZNK2rr11TraceReader16compressed_bytesEv
librr.so:_ZNK2rr11TraceReader18uncompressed_bytesEv
librr.so:_ZNK2rr11TraceReader4goodEv
librr.so:_ZNK2rr11TraceWriter4goodEv
librr.so:_ZNK2rr12AddressSpace10mapping_ofENS_10remote_ptrIvEE
librr.so:_ZNK2rr12AddressSpace11has_mappingENS_10remote_ptrIvEE
librr.so:_ZNK2rr12AddressSpace11has_rr_pageEv
librr.so:_ZNK2rr12AddressSpace4archEv
librr.so:_ZNK2rr12AddressSpace4dumpEv
librr.so:_ZNK2rr12AddressSpace4vdsoEv
librr.so:_ZNK2rr12AddressSpace6verifyEPNS_4TaskE
librr.so:_ZNK2rr12ParsedOption16verify_valid_intEll
librr.so:_ZNK2rr13GdbExpression8evaluateEPNS_4TaskEPNS0_5ValueE
librr.so:_ZNK2rr13RecordSession9find_taskERKNS_10TaskishUidINS_4TaskEEE
librr.so:_ZNK2rr13RecordSession9find_taskEi
librr.so:_ZNK2rr13ReplaySession9find_taskERKNS_10TaskishUidINS_4TaskEEE
librr.so:_ZNK2rr13ReplaySession9find_taskEi
librr.so:_ZNK2rr14ExtraRegisters11read_xinuseEPb
librr.so:_ZNK2rr14ExtraRegisters13read_registerEPhNS_11GdbRegisterEPb
librr.so:_ZNK2rr14ExtraRegisters22get_user_fpregs_structENS_13SupportedArchE
librr.so:_ZNK2rr14ExtraRegisters23get_user_fpxregs_structEv
librr.so:_ZNK2rr14ExtraRegisters27print_register_file_compactEP8_IO_FILE
librr.so:_ZNK2rr14ReplayTimeline10proto_markEv
librr.so:_ZNK2rr14ReplayTimeline12InternalMark12equal_statesERNS_13ReplaySessionE
librr.so:_ZNK2rr14ReplayTimeline9ProtoMark12equal_statesERNS_13ReplaySessionE
librr.so:_ZNK2rr16CompressedReader16compressed_bytesEv
librr.so:_ZNK2rr16CompressedReader18uncompressed_bytesEv
librr.so:_ZNK2rr18AutoRemoteSyscalls4archEv
librr.so:_ZNK2rr25VirtualPerfCounterMonitor17disable_interruptEv
librr.so:_ZNK2rr25VirtualPerfCounterMonitor17synthesize_signalEPNS_10RecordTaskE
librr.so:_ZNK2rr4Task10trace_timeEv
librr.so:_ZNK2rr4Task12trace_streamEv
librr.so:_ZNK2rr4Task23is_ptrace_seccomp_eventEv
librr.so:_ZNK2rr4Task4dumpEP8_IO_FILE
librr.so:_ZNK2rr4Task4regsEv
librr.so:_ZNK2rr4Task4tgidEv
librr.so:_ZNK2rr4Task6execedEv
librr.so:_ZNK2rr4Task9real_tgidEv
librr.so:_ZNK2rr4Task9trace_dirB5cxx11Ev
librr.so:_ZNK2rr5EmuFs12has_file_forERKNS_13KernelMappingE
librr.so:_ZNK2rr5EmuFs2atERKNS_13KernelMappingE
librr.so:_ZNK2rr5EmuFs3logEv
librr.so:_ZNK2rr5Event11record_regsEv
librr.so:_ZNK2rr5Event14has_ticks_slopEv
librr.so:_ZNK2rr5Event15is_signal_eventEv
librr.so:_ZNK2rr5Event16is_syscall_eventEv
librr.so:_ZNK2rr5Event17record_extra_regsEv
librr.so:_ZNK2rr5Event3logEv
librr.so:_ZNK2rr5Event3strB5cxx11Ev
librr.so:_ZNK2rr5Event9type_nameB5cxx11Ev
librr.so:_ZNK2rr7EmuFile9proc_pathB5cxx11Ev
librr.so:_ZNK2rr7Session17find_thread_groupERKNS_10TaskishUidINS_11ThreadGroupEEE
librr.so:_ZNK2rr7Session17find_thread_groupEi
librr.so:_ZNK2rr7Session18find_address_spaceERKNS_15AddressSpaceUidE
librr.so:_ZNK2rr7Session19finish_initializingEv
librr.so:_ZNK2rr7Session23read_spawned_task_errorB5cxx11Ev
librr.so:_ZNK2rr7Session24assert_fully_initializedEv
librr.so:_ZNK2rr7Session3vmsEv
librr.so:_ZNK2rr7Session9find_taskERKNS_10TaskishUidINS_4TaskEEE
librr.so:_ZNK2rr7Session9find_taskEi
librr.so:_ZNK2rr9ParamSize4evalEPNS_10RecordTaskEm
librr.so:_ZNK2rr9Registers10get_ptraceEv
librr.so:_ZNK2rr9Registers13read_registerEPhNS_11GdbRegisterEPb
librr.so:_ZNK2rr9Registers14syscall_failedEv
librr.so:_ZNK2rr9Registers19get_ptrace_for_archENS_13SupportedArchE
librr.so:_ZNK2rr9Registers19print_register_fileEP8_IO_FILE
librr.so:_ZNK2rr9Registers19syscall_may_restartEv
librr.so:_ZNK2rr9Registers24get_ptrace_for_self_archEv
librr.so:_ZNK2rr9Registers27print_register_file_compactEP8_IO_FILE
librr.so:_ZNK2rr9Registers28read_register_by_user_offsetEPhmPb
librr.so:_ZNK2rr9Registers33print_register_file_for_trace_rawEP8_IO_FILE
librr.so:_ZNK2rr9Registers5flagsEv
librr.so:_ZNK2rr9Scheduler28interrupt_after_elapsed_timeEv
librr.so:blake2
librr.so:blake2b
librr.so:blake2b_final
librr.so:blake2b_init
librr.so:blake2b_init_key
librr.so:blake2b_init_param
librr.so:blake2b_update
librr.so:cpuid_call
librr.so:cpuid_loop
librr.so:ps_get_thread_area
librr.so:ps_getpid
librr.so:ps_lgetfpregs
librr.so:ps_lgetregs
librr.so:ps_lsetfpregs
librr.so:ps_lsetregs
librr.so:ps_pdread
librr.so:ps_pdwrite
librr.so:ps_pglobal_lookup
